target datalayout = "e-m:e-p270:32:32-p271:32:32-p272:64:64-i64:64-i128:128-f80:128-n8:16:32:64-S128"
target triple = "x86_64-pc-linux-gnu"

%"class.open_spiel::solitaire::Card" = type { i32, i32, i32, i8, i32 }
%"class.open_spiel::solitaire::Move" = type { %"class.open_spiel::solitaire::Card", %"class.open_spiel::solitaire::Card" }

; Function Attrs: mustprogress nounwind uwtable
define noundef i32 @_ZNK10open_spiel9solitaire4Card7GetSuitEv(ptr noundef nonnull align 4 dereferenceable(20) %0) #5 align 2 {
  %2 = alloca ptr, align 8
  store ptr %0, ptr %2, align 8
  %3 = load ptr, ptr %2, align 8
  %4 = getelementptr inbounds nuw %"class.open_spiel::solitaire::Card", ptr %3, i32 0, i32 1
  %5 = load i32, ptr %4, align 4
  ret i32 %5
}

; Function Attrs: mustprogress nounwind uwtable
define noundef i32 @_ZNK10open_spiel9solitaire4Card7GetRankEv(ptr noundef nonnull align 4 dereferenceable(20) %0) #5 align 2 {
  %2 = alloca ptr, align 8
  store ptr %0, ptr %2, align 8
  %3 = load ptr, ptr %2, align 8
  %4 = getelementptr inbounds nuw %"class.open_spiel::solitaire::Card", ptr %3, i32 0, i32 0
  %5 = load i32, ptr %4, align 4
  ret i32 %5
}

; Function Attrs: mustprogress nounwind uwtable
define noundef i64 @_ZNK10open_spiel9solitaire4Move8ActionIdEv(ptr noundef nonnull align 4 dereferenceable(40) %0) #5 align 2 {
  %2 = alloca i64, align 8
  %3 = alloca ptr, align 8
  %4 = alloca i32, align 4
  %5 = alloca i32, align 4
  %6 = alloca i32, align 4
  %7 = alloca i32, align 4
  %8 = alloca i32, align 4
  %9 = alloca i32, align 4
  store ptr %0, ptr %3, align 8
  %10 = load ptr, ptr %3, align 8
  %11 = getelementptr inbounds nuw %"class.open_spiel::solitaire::Move", ptr %10, i32 0, i32 0
  %12 = call noundef i32 @_ZNK10open_spiel9solitaire4Card7GetRankEv(ptr noundef nonnull align 4 dereferenceable(20) %11)
  store i32 %12, ptr %4, align 4
  %13 = getelementptr inbounds nuw %"class.open_spiel::solitaire::Move", ptr %10, i32 0, i32 1
  %14 = call noundef i32 @_ZNK10open_spiel9solitaire4Card7GetRankEv(ptr noundef nonnull align 4 dereferenceable(20) %13)
  store i32 %14, ptr %5, align 4
  %15 = getelementptr inbounds nuw %"class.open_spiel::solitaire::Move", ptr %10, i32 0, i32 0
  %16 = call noundef i32 @_ZNK10open_spiel9solitaire4Card7GetSuitEv(ptr noundef nonnull align 4 dereferenceable(20) %15)
  store i32 %16, ptr %6, align 4
  %17 = getelementptr inbounds nuw %"class.open_spiel::solitaire::Move", ptr %10, i32 0, i32 1
  %18 = call noundef i32 @_ZNK10open_spiel9solitaire4Card7GetSuitEv(ptr noundef nonnull align 4 dereferenceable(20) %17)
  store i32 %18, ptr %7, align 4
  %19 = load i32, ptr %4, align 4
  switch i32 %19, label %51 [
    i32 0, label %20
    i32 1, label %31
    i32 13, label %37
  ]

20:                                               ; preds = %1
  %21 = load i32, ptr %5, align 4
  switch i32 %21, label %24 [
    i32 1, label %22
    i32 13, label %23
  ]

22:                                               ; preds = %20
  store i32 132, ptr %8, align 4
  br label %25

23:                                               ; preds = %20
  store i32 136, ptr %8, align 4
  br label %25

24:                                               ; preds = %20
  store i32 -999, ptr %8, align 4
  br label %25

25:                                               ; preds = %24, %23, %22
  %26 = load i32, ptr %8, align 4
  %27 = load i32, ptr %7, align 4
  %28 = add nsw i32 %26, %27
  %29 = add nsw i32 %28, 52
  %30 = sext i32 %29 to i64
  store i64 %30, ptr %2, align 8
  br label %75

31:                                               ; preds = %1
  store i32 140, ptr %8, align 4
  %32 = load i32, ptr %8, align 4
  %33 = load i32, ptr %7, align 4
  %34 = add nsw i32 %32, %33
  %35 = add nsw i32 %34, 52
  %36 = sext i32 %35 to i64
  store i64 %36, ptr %2, align 8
  br label %75

37:                                               ; preds = %1
  store i32 144, ptr %8, align 4
  %38 = load i32, ptr %7, align 4
  %39 = icmp sle i32 %38, 2
  br i1 %39, label %40, label %41

40:                                               ; preds = %37
  store i32 -1, ptr %9, align 4
  br label %42

41:                                               ; preds = %37
  store i32 0, ptr %9, align 4
  br label %42

42:                                               ; preds = %41, %40
  %43 = load i32, ptr %8, align 4
  %44 = load i32, ptr %6, align 4
  %45 = mul nsw i32 2, %44
  %46 = add nsw i32 %43, %45
  %47 = load i32, ptr %9, align 4
  %48 = add nsw i32 %46, %47
  %49 = add nsw i32 %48, 52
  %50 = sext i32 %49 to i64
  store i64 %50, ptr %2, align 8
  br label %75

51:                                               ; preds = %1
  %52 = load i32, ptr %6, align 4
  %53 = sub nsw i32 %52, 1
  %54 = mul nsw i32 %53, 33
  %55 = load i32, ptr %4, align 4
  %56 = sub nsw i32 %55, 2
  %57 = mul nsw i32 %56, 3
  %58 = add nsw i32 %54, %57
  store i32 %58, ptr %8, align 4
  %59 = load i32, ptr %6, align 4
  %60 = load i32, ptr %7, align 4
  %61 = icmp eq i32 %59, %60
  br i1 %61, label %62, label %63

62:                                               ; preds = %51
  store i32 1, ptr %9, align 4
  br label %69

63:                                               ; preds = %51
  %64 = load i32, ptr %7, align 4
  %65 = icmp sle i32 %64, 2
  br i1 %65, label %66, label %67

66:                                               ; preds = %63
  store i32 2, ptr %9, align 4
  br label %68

67:                                               ; preds = %63
  store i32 3, ptr %9, align 4
  br label %68

68:                                               ; preds = %67, %66
  br label %69

69:                                               ; preds = %68, %62
  %70 = load i32, ptr %8, align 4
  %71 = load i32, ptr %9, align 4
  %72 = add nsw i32 %70, %71
  %73 = add nsw i32 %72, 52
  %74 = sext i32 %73 to i64
  store i64 %74, ptr %2, align 8
  br label %75

75:                                               ; preds = %69, %42, %31, %25
  %76 = load i64, ptr %2, align 8
  ret i64 %76
}