; Function Attrs: mustprogress nofree norecurse nosync nounwind willreturn memory(argmem: read) uwtable
define noundef range(i64 -2147483648, 2147483648) i64 @_ZNK10open_spiel9solitaire4Move8ActionIdEv(ptr nocapture noundef nonnull readonly align 4 dereferenceable(40) %0) local_unnamed_addr #10 align 2 {
  %2 = load i32, ptr %0, align 4
  %3 = getelementptr inbounds nuw i8, ptr %0, i64 4
  %4 = load i32, ptr %3, align 4
  %5 = getelementptr inbounds i8, ptr %0, i64 24
  %6 = load i32, ptr %5, align 4
  switch i32 %2, label %19 [
    i32 0, label %7
    i32 1, label %12
    i32 13, label %14
  ]

7:                                                ; preds = %1
  %8 = getelementptr inbounds nuw i8, ptr %0, i64 20
  %9 = load i32, ptr %8, align 4
  %switch.selectcmp = icmp eq i32 %9, 13
  %switch.select = select i1 %switch.selectcmp, i32 136, i32 -999
  %switch.selectcmp21 = icmp eq i32 %9, 1
  %switch.select22 = select i1 %switch.selectcmp21, i32 132, i32 %switch.select
  %10 = add i32 %6, 52
  %11 = add i32 %10, %switch.select22
  br label %27

12:                                               ; preds = %1
  %13 = add nsw i32 %6, 192
  br label %27

14:                                               ; preds = %1
  %15 = icmp slt i32 %6, 3
  %. = sext i1 %15 to i32
  %16 = shl nsw i32 %4, 1
  %17 = add i32 %16, 196
  %18 = add i32 %17, %.
  br label %27

19:                                               ; preds = %1
  %20 = mul i32 %4, 33
  %21 = mul i32 %2, 3
  %22 = icmp eq i32 %4, %6
  %23 = icmp slt i32 %6, 3
  %.23 = select i1 %23, i32 2, i32 3
  %.1 = select i1 %22, i32 1, i32 %.23
  %24 = add i32 %21, 13
  %25 = add i32 %24, %20
  %26 = add i32 %25, %.1
  br label %27

27:                                               ; preds = %19, %14, %12, %7
  %.019.in = phi i32 [ %26, %19 ], [ %18, %14 ], [ %13, %12 ], [ %11, %7 ]
  %.019 = sext i32 %.019.in to i64
  ret i64 %.019
}